
 Start  Stop   Length Name               Class

 00000H 014C0H 014C1H _TEXT              CODE
 014D0H 01729H 0025AH _DATA              DATA
 0172AH 0172DH 00004H _EMUSEG            DATA
 0172EH 0172FH 00002H _CRTSEG            DATA
 01730H 01731H 00002H _CVTSEG            DATA
 01732H 01737H 00006H _SCNSEG            DATA
 01738H 0177FH 00048H _BSS               BSS
 01780H 01780H 00000H _BSSEND            STACK

Detailed map of segments

0000:0000 02D8 C=CODE S=_TEXT G=DGROUP M=C0T ACBP=28
0000:02D8 0022 C=CODE S=_TEXT G=(none) M=COLOR.C ACBP=28
0000:02FA 0030 C=CODE S=_TEXT G=(none) M=EXIT ACBP=28
0000:032A 0000 C=CODE S=_TEXT G=(none) M=HEAPLEN ACBP=28
0000:032A 00F1 C=CODE S=_TEXT G=(none) M=SETARGV ACBP=28
0000:041B 004A C=CODE S=_TEXT G=(none) M=SETENVP ACBP=28
0000:0465 0000 C=CODE S=_TEXT G=(none) M=STKLEN ACBP=28
0000:0465 0026 C=CODE S=_TEXT G=(none) M=ATEXIT ACBP=28
0000:048B 0152 C=CODE S=_TEXT G=(none) M=MALLOC ACBP=28
0000:05DD 0078 C=CODE S=_TEXT G=(none) M=BRK ACBP=28
0000:0655 00EB C=CODE S=_TEXT G=(none) M=LTOA ACBP=28
0000:0740 0021 C=CODE S=_TEXT G=(none) M=CVTFAK ACBP=28
0000:0761 0004 C=CODE S=_TEXT G=(none) M=REALCVT ACBP=28
0000:0765 054E C=CODE S=_TEXT G=(none) M=VPRINTER ACBP=28
0000:0CB3 0116 C=CODE S=_TEXT G=(none) M=CRTINIT ACBP=28
0000:0DC9 004C C=CODE S=_TEXT G=(none) M=COLOR ACBP=28
0000:0E15 0147 C=CODE S=_TEXT G=(none) M=CPRINTF ACBP=28
0000:0F5C 0087 C=CODE S=_TEXT G=(none) M=GPTEXT ACBP=28
0000:0FE3 00A2 C=CODE S=_TEXT G=(none) M=MOVETEXT ACBP=28
0000:1085 0020 C=CODE S=_TEXT G=(none) M=OVERFLOW ACBP=28
0000:10A5 018B C=CODE S=_TEXT G=(none) M=SCROLL ACBP=28
0000:1230 01BD C=CODE S=_TEXT G=(none) M=SCREEN ACBP=28
0000:13ED 00A2 C=CODE S=_TEXT G=(none) M=VRAM ACBP=28
0000:148F 0032 C=CODE S=_TEXT G=(none) M=WHEREXY ACBP=28
014D:0000 017B C=DATA S=_DATA G=DGROUP M=C0T ACBP=68
014D:017C 0010 C=DATA S=_DATA G=DGROUP M=COLOR.C ACBP=48
014D:018C 0006 C=DATA S=_DATA G=DGROUP M=EXIT ACBP=48
014D:0192 0002 C=DATA S=_DATA G=DGROUP M=HEAPLEN ACBP=48
014D:0194 0000 C=DATA S=_DATA G=DGROUP M=SETARGV ACBP=48
014D:0194 0000 C=DATA S=_DATA G=DGROUP M=SETENVP ACBP=48
014D:0194 0002 C=DATA S=_DATA G=DGROUP M=STKLEN ACBP=48
014D:0196 0002 C=DATA S=_DATA G=DGROUP M=ATEXIT ACBP=48
014D:0198 0000 C=DATA S=_DATA G=DGROUP M=MALLOC ACBP=48
014D:0198 0000 C=DATA S=_DATA G=DGROUP M=BRK ACBP=48
014D:0198 0000 C=DATA S=_DATA G=DGROUP M=LTOA ACBP=48
014D:0198 0031 C=DATA S=_DATA G=DGROUP M=CVTFAK ACBP=48
014D:01CA 0077 C=DATA S=_DATA G=DGROUP M=VPRINTER ACBP=48
014D:0242 0018 C=DATA S=_DATA G=DGROUP M=CRTINIT ACBP=48
014D:025A 0000 C=DATA S=_DATA G=DGROUP M=COLOR ACBP=48
014D:025A 0000 C=DATA S=_DATA G=DGROUP M=CPRINTF ACBP=48
014D:025A 0000 C=DATA S=_DATA G=DGROUP M=GPTEXT ACBP=48
014D:025A 0000 C=DATA S=_DATA G=DGROUP M=MOVETEXT ACBP=48
014D:025A 0000 C=DATA S=_DATA G=DGROUP M=SCROLL ACBP=48
014D:025A 0000 C=DATA S=_DATA G=DGROUP M=SCREEN ACBP=48
014D:025A 0000 C=DATA S=_DATA G=DGROUP M=VRAM ACBP=48
014D:025A 0000 C=DATA S=_DATA G=DGROUP M=WHEREXY ACBP=48
0172:000A 0004 C=DATA S=_EMUSEG G=DGROUP M=C0T ACBP=58
0172:000E 0002 C=DATA S=_CRTSEG G=DGROUP M=C0T ACBP=58
0172:000E 0002 C=DATA S=_CRTSEG G=(none) M=CRTINIT ACBP=58
0173:0000 0000 C=DATA S=_CVTSEG G=DGROUP M=C0T ACBP=48
0173:0000 0002 C=DATA S=_CVTSEG G=(none) M=CVTFAK ACBP=48
0173:0002 0000 C=DATA S=_CVTSEG G=DGROUP M=REALCVT ACBP=48
0173:0002 0000 C=DATA S=_SCNSEG G=DGROUP M=C0T ACBP=48
0173:0002 0006 C=DATA S=_SCNSEG G=(none) M=CVTFAK ACBP=48
0173:0008 0000 C=BSS S=_BSS G=DGROUP M=C0T ACBP=48
0173:0008 0000 C=BSS S=_BSS G=DGROUP M=COLOR.C ACBP=48
0173:0008 0000 C=BSS S=_BSS G=DGROUP M=EXIT ACBP=48
0173:0008 0000 C=BSS S=_BSS G=DGROUP M=HEAPLEN ACBP=48
0173:0008 0000 C=BSS S=_BSS G=DGROUP M=STKLEN ACBP=48
0173:0008 0040 C=BSS S=_BSS G=DGROUP M=ATEXIT ACBP=48
0173:0048 0006 C=BSS S=_BSS G=DGROUP M=MALLOC ACBP=48
0173:004E 0000 C=BSS S=_BSS G=DGROUP M=BRK ACBP=48
0173:004E 0000 C=BSS S=_BSS G=DGROUP M=LTOA ACBP=48
0173:004E 0000 C=BSS S=_BSS G=DGROUP M=VPRINTER ACBP=48
0173:004E 0002 C=BSS S=_BSS G=DGROUP M=CRTINIT ACBP=48
0173:0050 0000 C=BSS S=_BSS G=DGROUP M=COLOR ACBP=48
0173:0050 0000 C=BSS S=_BSS G=DGROUP M=CPRINTF ACBP=48
0173:0050 0000 C=BSS S=_BSS G=DGROUP M=GPTEXT ACBP=48
0173:0050 0000 C=BSS S=_BSS G=DGROUP M=MOVETEXT ACBP=48
0173:0050 0000 C=BSS S=_BSS G=DGROUP M=SCROLL ACBP=48
0173:0050 0000 C=BSS S=_BSS G=DGROUP M=SCREEN ACBP=48
0173:0050 0000 C=BSS S=_BSS G=DGROUP M=VRAM ACBP=48
0173:0050 0000 C=BSS S=_BSS G=DGROUP M=WHEREXY ACBP=48
0178:0000 0000 C=STACK S=_BSSEND G=DGROUP M=C0T ACBP=28

  Address         Publics by Name

 0000:02D6       DGROUP@
 0000:163F       EMWS_ADJUST
 0000:1643       EMWS_BPSAFE
 0000:163B       EMWS_CONTROL
 0000:1641       EMWS_FIXSEG
 0000:1625       EMWS_INITIALSP
 0000:1565       EMWS_LIMITSP
 0000:1635       EMWS_NMIVECTOR
 0000:1631       EMWS_SAVEVECTOR
 0000:1645       EMWS_STAMP
 0000:1639       EMWS_STATUS
 0000:163D       EMWS_TOS
 0000:1649       EMWS_VERSION
 0000:1097       OVERFLOW@
 0000:02C0       _ABORT
 0000:0465       _ATEXIT
 0000:0635       _BRK
 0000:0F44       _CPRINTF
 0000:1721       _DIRECTVIDEO
 0000:153F       _ENVIRON
 0000:154B       _ERRNO
 0000:02FB       _EXIT
 0000:0F5C       _GETTEXT
 0000:0E02       _HIGHVIDEO
 0000:06D4       _ITOA
 0000:0E08       _LOWVIDEO
 0000:0719       _LTOA
 0000:02D8       _MAIN
 0000:056A       _MALLOC
 0000:0FE3       _MOVETEXT
 0000:0E0E       _NORMVIDEO
 0000:0FAB       _PUTTEXT
 0000:0643       _SBRK
 0000:0DF7       _TEXTATTR
 0000:0DDE       _TEXTBACKGROUND
 0000:0DC9       _TEXTCOLOR
 0000:06FD       _ULTOA
 0000:149B       _WHEREX
 0000:14AC       _WHEREY
 0000:154D       __8087
 0000:153B       __ARGC
 0000:153D       __ARGV
 0000:1666       __ATEXITCNT
 0000:1738       __ATEXITTBL
 0000:155D       __BRKLVL
 0000:0D02       __C0CRTINIT
 0000:0E15       __CPUTN
 0000:0D1F       __CRTINIT
 0000:0000  Abs  __CVTFAK
 0000:1541       __ENVLNG
 0000:1543       __ENVSEG
 0000:1545       __ENVSIZE
 0000:0220       __EXIT
 0000:165C       __EXITBUF
 0000:165E       __EXITFOPEN
 0000:1660       __EXITOPEN
 0000:1559       __HEAPBASE
 0000:1662       __HEAPLEN
 0000:1561       __HEAPTOP
 0000:152B       __INT0VECTOR
 0000:152F       __INT4VECTOR
 0000:1533       __INT5VECTOR
 0000:1537       __INT6VECTOR
 0000:0655       __LONGTOA
 0000:1549       __OSMAJOR
 0000:154A       __OSMINOR
 0000:1547       __PSP
 0000:0761       __REALCVT
 0000:1730       __REALCVTVECTOR
 0000:0283       __RESTOREZERO
 0000:1732       __SCANTODVECTOR
 0000:1368       __SCREENIO
 0000:10C8       __SCROLL
 0000:0330       __SETARGV
 0000:041B       __SETENVP
 0000:154F       __STARTTIME
 0000:1664       __STKLEN
 0000:0000  Abs  __TURBOCRT
 0000:13A3       __VALIDATEXY
 0000:1549       __VERSION
 0000:1712       __VIDEO
 0000:0CF3       __VIDEOINT
 0000:0790       __VPRINTER
 0000:13ED       __VPTR
 0000:1412       __VRAM
 0000:148F       __WHEREXY
 0000:05DD       ___BRK
 0000:1555       ___BRKLVL
 0000:177C       ___FIRST
 0000:1553       ___HEAPBASE
 0000:1557       ___HEAPTOP
 0000:1778       ___LAST
 0000:048B       ___PULL_FREE_BLOCK
 0000:177A       ___ROVER
 0000:0601       ___SBRK

  Address         Publics by Value

 0000:0000  Abs  __CVTFAK
 0000:0000  Abs  __TURBOCRT
 0000:0220       __EXIT
 0000:0283       __RESTOREZERO
 0000:02C0       _ABORT
 0000:02D6       DGROUP@
 0000:02D8       _MAIN
 0000:02FB       _EXIT
 0000:0330       __SETARGV
 0000:041B       __SETENVP
 0000:0465       _ATEXIT
 0000:048B       ___PULL_FREE_BLOCK
 0000:056A       _MALLOC
 0000:05DD       ___BRK
 0000:0601       ___SBRK
 0000:0635       _BRK
 0000:0643       _SBRK
 0000:0655       __LONGTOA
 0000:06D4       _ITOA
 0000:06FD       _ULTOA
 0000:0719       _LTOA
 0000:0761       __REALCVT
 0000:0790       __VPRINTER
 0000:0CF3       __VIDEOINT
 0000:0D02       __C0CRTINIT
 0000:0D1F       __CRTINIT
 0000:0DC9       _TEXTCOLOR
 0000:0DDE       _TEXTBACKGROUND
 0000:0DF7       _TEXTATTR
 0000:0E02       _HIGHVIDEO
 0000:0E08       _LOWVIDEO
 0000:0E0E       _NORMVIDEO
 0000:0E15       __CPUTN
 0000:0F44       _CPRINTF
 0000:0F5C       _GETTEXT
 0000:0FAB       _PUTTEXT
 0000:0FE3       _MOVETEXT
 0000:1097       OVERFLOW@
 0000:10C8       __SCROLL
 0000:1368       __SCREENIO
 0000:13A3       __VALIDATEXY
 0000:13ED       __VPTR
 0000:1412       __VRAM
 0000:148F       __WHEREXY
 0000:149B       _WHEREX
 0000:14AC       _WHEREY
 0000:152B       __INT0VECTOR
 0000:152F       __INT4VECTOR
 0000:1533       __INT5VECTOR
 0000:1537       __INT6VECTOR
 0000:153B       __ARGC
 0000:153D       __ARGV
 0000:153F       _ENVIRON
 0000:1541       __ENVLNG
 0000:1543       __ENVSEG
 0000:1545       __ENVSIZE
 0000:1547       __PSP
 0000:1549       __VERSION
 0000:1549       __OSMAJOR
 0000:154A       __OSMINOR
 0000:154B       _ERRNO
 0000:154D       __8087
 0000:154F       __STARTTIME
 0000:1553       ___HEAPBASE
 0000:1555       ___BRKLVL
 0000:1557       ___HEAPTOP
 0000:1559       __HEAPBASE
 0000:155D       __BRKLVL
 0000:1561       __HEAPTOP
 0000:1565       EMWS_LIMITSP
 0000:1625       EMWS_INITIALSP
 0000:1631       EMWS_SAVEVECTOR
 0000:1635       EMWS_NMIVECTOR
 0000:1639       EMWS_STATUS
 0000:163B       EMWS_CONTROL
 0000:163D       EMWS_TOS
 0000:163F       EMWS_ADJUST
 0000:1641       EMWS_FIXSEG
 0000:1643       EMWS_BPSAFE
 0000:1645       EMWS_STAMP
 0000:1649       EMWS_VERSION
 0000:165C       __EXITBUF
 0000:165E       __EXITFOPEN
 0000:1660       __EXITOPEN
 0000:1662       __HEAPLEN
 0000:1664       __STKLEN
 0000:1666       __ATEXITCNT
 0000:1712       __VIDEO
 0000:1721       _DIRECTVIDEO
 0000:1730       __REALCVTVECTOR
 0000:1732       __SCANTODVECTOR
 0000:1738       __ATEXITTBL
 0000:1778       ___LAST
 0000:177A       ___ROVER
 0000:177C       ___FIRST


